target datalayout = "e-m:e-p270:32:32-p271:32:32-p272:64:64-i64:64-i128:128-f80:128-n8:16:32:64-S128"
target triple = "x86_64-pc-linux-gnu"

%struct.hid_device_info = type { ptr, i16, i16, ptr, i16, ptr, ptr, i16, i16, i32, ptr, i32, i32, i32, i32 }
%struct.SDL_hid_device_info = type { ptr, i16, i16, ptr, i16, ptr, ptr, i16, i16, i32, i32, i32, i32, i32, ptr }

@udev_ctx = internal global ptr null, align 8
@SDL_hidapi_refcount = internal global i32 0, align 4
@use_libusb_whitelist = internal global i8 1, align 1
@.str.26 = private unnamed_addr constant [7 x i8] c"driver\00", align 1
@.str.27 = private unnamed_addr constant [4 x i8] c"raw\00", align 1
@.str.28 = private unnamed_addr constant [7 x i8] c"libusb\00", align 1
@.str.29 = private unnamed_addr constant [9 x i8] c"platform\00", align 1

; Function Attrs: nounwind uwtable
define hidden void @PLATFORM_hid_free_enumeration(ptr noundef %0) #0 {
  %2 = alloca ptr, align 8
  %3 = alloca ptr, align 8
  %4 = alloca ptr, align 8
  store ptr %0, ptr %2, align 8
  call void @llvm.lifetime.start.p0(i64 8, ptr %3) #10
  %5 = load ptr, ptr %2, align 8
  store ptr %5, ptr %3, align 8
  br label %6

6:                                                ; preds = %9, %1
  %7 = load ptr, ptr %3, align 8
  %8 = icmp ne ptr %7, null
  br i1 %8, label %9, label %27

9:                                                ; preds = %6
  call void @llvm.lifetime.start.p0(i64 8, ptr %4) #10
  %10 = load ptr, ptr %3, align 8
  %11 = getelementptr inbounds nuw %struct.hid_device_info, ptr %10, i32 0, i32 10
  %12 = load ptr, ptr %11, align 8
  store ptr %12, ptr %4, align 8
  %13 = load ptr, ptr %3, align 8
  %14 = getelementptr inbounds nuw %struct.hid_device_info, ptr %13, i32 0, i32 0
  %15 = load ptr, ptr %14, align 8
  call void @free(ptr noundef %15) #10
  %16 = load ptr, ptr %3, align 8
  %17 = getelementptr inbounds nuw %struct.hid_device_info, ptr %16, i32 0, i32 3
  %18 = load ptr, ptr %17, align 8
  call void @free(ptr noundef %18) #10
  %19 = load ptr, ptr %3, align 8
  %20 = getelementptr inbounds nuw %struct.hid_device_info, ptr %19, i32 0, i32 5
  %21 = load ptr, ptr %20, align 8
  call void @free(ptr noundef %21) #10
  %22 = load ptr, ptr %3, align 8
  %23 = getelementptr inbounds nuw %struct.hid_device_info, ptr %22, i32 0, i32 6
  %24 = load ptr, ptr %23, align 8
  call void @free(ptr noundef %24) #10
  %25 = load ptr, ptr %3, align 8
  call void @free(ptr noundef %25) #10
  %26 = load ptr, ptr %4, align 8
  store ptr %26, ptr %3, align 8
  call void @llvm.lifetime.end.p0(i64 8, ptr %4) #10
  br label %6, !llvm.loop !8

27:                                               ; preds = %6
  call void @llvm.lifetime.end.p0(i64 8, ptr %3) #10
  ret void
}

; Function Attrs: nounwind uwtable
define internal void @RemoveDeviceFromEnumeration(ptr noundef %0, ptr noundef %1, ptr noundef %2, ptr noundef %3) #0 {
  %5 = alloca ptr, align 8
  %6 = alloca ptr, align 8
  %7 = alloca ptr, align 8
  %8 = alloca ptr, align 8
  %9 = alloca ptr, align 8
  %10 = alloca ptr, align 8
  %11 = alloca ptr, align 8
  store ptr %0, ptr %5, align 8
  store ptr %1, ptr %6, align 8
  store ptr %2, ptr %7, align 8
  store ptr %3, ptr %8, align 8
  call void @llvm.lifetime.start.p0(i64 8, ptr %9) #10
  store ptr null, ptr %9, align 8
  call void @llvm.lifetime.start.p0(i64 8, ptr %10) #10
  call void @llvm.lifetime.start.p0(i64 8, ptr %11) #10
  %12 = load ptr, ptr %7, align 8
  %13 = load ptr, ptr %12, align 8
  store ptr %13, ptr %10, align 8
  br label %14

14:                                               ; preds = %75, %4
  %15 = load ptr, ptr %10, align 8
  %16 = icmp ne ptr %15, null
  br i1 %16, label %17, label %77

17:                                               ; preds = %14
  %18 = load ptr, ptr %10, align 8
  %19 = getelementptr inbounds nuw %struct.hid_device_info, ptr %18, i32 0, i32 10
  %20 = load ptr, ptr %19, align 8
  store ptr %20, ptr %11, align 8
  %21 = load ptr, ptr %6, align 8
  %22 = getelementptr inbounds nuw %struct.hid_device_info, ptr %21, i32 0, i32 1
  %23 = load i16, ptr %22, align 8
  %24 = zext i16 %23 to i32
  %25 = load ptr, ptr %10, align 8
  %26 = getelementptr inbounds nuw %struct.hid_device_info, ptr %25, i32 0, i32 1
  %27 = load i16, ptr %26, align 8
  %28 = zext i16 %27 to i32
  %29 = icmp eq i32 %24, %28
  br i1 %29, label %30, label %73

30:                                               ; preds = %17
  %31 = load ptr, ptr %6, align 8
  %32 = getelementptr inbounds nuw %struct.hid_device_info, ptr %31, i32 0, i32 2
  %33 = load i16, ptr %32, align 2
  %34 = zext i16 %33 to i32
  %35 = load ptr, ptr %10, align 8
  %36 = getelementptr inbounds nuw %struct.hid_device_info, ptr %35, i32 0, i32 2
  %37 = load i16, ptr %36, align 2
  %38 = zext i16 %37 to i32
  %39 = icmp eq i32 %34, %38
  br i1 %39, label %40, label %73

40:                                               ; preds = %30
  %41 = load ptr, ptr %6, align 8
  %42 = getelementptr inbounds nuw %struct.hid_device_info, ptr %41, i32 0, i32 9
  %43 = load i32, ptr %42, align 4
  %44 = icmp slt i32 %43, 0
  br i1 %44, label %58, label %45

45:                                               ; preds = %40
  %46 = load ptr, ptr %10, align 8
  %47 = getelementptr inbounds nuw %struct.hid_device_info, ptr %46, i32 0, i32 9
  %48 = load i32, ptr %47, align 4
  %49 = icmp slt i32 %48, 0
  br i1 %49, label %58, label %50

50:                                               ; preds = %45
  %51 = load ptr, ptr %6, align 8
  %52 = getelementptr inbounds nuw %struct.hid_device_info, ptr %51, i32 0, i32 9
  %53 = load i32, ptr %52, align 4
  %54 = load ptr, ptr %10, align 8
  %55 = getelementptr inbounds nuw %struct.hid_device_info, ptr %54, i32 0, i32 9
  %56 = load i32, ptr %55, align 4
  %57 = icmp eq i32 %53, %56
  br i1 %57, label %58, label %73

58:                                               ; preds = %50, %45, %40
  %59 = load ptr, ptr %9, align 8
  %60 = icmp ne ptr %59, null
  br i1 %60, label %61, label %65

61:                                               ; preds = %58
  %62 = load ptr, ptr %11, align 8
  %63 = load ptr, ptr %9, align 8
  %64 = getelementptr inbounds nuw %struct.hid_device_info, ptr %63, i32 0, i32 10
  store ptr %62, ptr %64, align 8
  br label %68

65:                                               ; preds = %58
  %66 = load ptr, ptr %11, align 8
  %67 = load ptr, ptr %7, align 8
  store ptr %66, ptr %67, align 8
  br label %68

68:                                               ; preds = %65, %61
  %69 = load ptr, ptr %10, align 8
  %70 = getelementptr inbounds nuw %struct.hid_device_info, ptr %69, i32 0, i32 10
  store ptr null, ptr %70, align 8
  %71 = load ptr, ptr %8, align 8
  %72 = load ptr, ptr %10, align 8
  call void %71(ptr noundef %72)
  br label %75

73:                                               ; preds = %50, %30, %17
  %74 = load ptr, ptr %10, align 8
  store ptr %74, ptr %9, align 8
  br label %75

75:                                               ; preds = %73, %68
  %76 = load ptr, ptr %11, align 8
  store ptr %76, ptr %10, align 8
  br label %14, !llvm.loop !20

77:                                               ; preds = %14
  call void @llvm.lifetime.end.p0(i64 8, ptr %11) #10
  call void @llvm.lifetime.end.p0(i64 8, ptr %10) #10
  call void @llvm.lifetime.end.p0(i64 8, ptr %9) #10
  ret void
}

; Function Attrs: nounwind uwtable
define internal void @AddDeviceToEnumeration(ptr noundef %0, ptr noundef %1, ptr noundef %2, ptr noundef %3) #0 {
  %5 = alloca ptr, align 8
  %6 = alloca ptr, align 8
  %7 = alloca ptr, align 8
  %8 = alloca ptr, align 8
  %9 = alloca ptr, align 8
  %10 = alloca i32, align 4
  store ptr %0, ptr %5, align 8
  store ptr %1, ptr %6, align 8
  store ptr %2, ptr %7, align 8
  store ptr %3, ptr %8, align 8
  call void @llvm.lifetime.start.p0(i64 8, ptr %9) #10
  %11 = call noalias ptr @SDL_malloc_REAL(i64 noundef 80)
  store ptr %11, ptr %9, align 8
  %12 = load ptr, ptr %9, align 8
  %13 = icmp eq ptr %12, null
  br i1 %13, label %14, label %15

14:                                               ; preds = %4
  store i32 1, ptr %10, align 4
  br label %32

15:                                               ; preds = %4
  %16 = load ptr, ptr %6, align 8
  %17 = load ptr, ptr %9, align 8
  call void @CopyHIDDeviceInfo(ptr noundef %16, ptr noundef %17)
  %18 = load ptr, ptr %8, align 8
  %19 = load ptr, ptr %18, align 8
  %20 = icmp ne ptr %19, null
  br i1 %20, label %21, label %26

21:                                               ; preds = %15
  %22 = load ptr, ptr %9, align 8
  %23 = load ptr, ptr %8, align 8
  %24 = load ptr, ptr %23, align 8
  %25 = getelementptr inbounds nuw %struct.SDL_hid_device_info, ptr %24, i32 0, i32 14
  store ptr %22, ptr %25, align 8
  br label %29

26:                                               ; preds = %15
  %27 = load ptr, ptr %9, align 8
  %28 = load ptr, ptr %7, align 8
  store ptr %27, ptr %28, align 8
  br label %29

29:                                               ; preds = %26, %21
  %30 = load ptr, ptr %9, align 8
  %31 = load ptr, ptr %8, align 8
  store ptr %30, ptr %31, align 8
  store i32 0, ptr %10, align 4
  br label %32

32:                                               ; preds = %29, %14
  call void @llvm.lifetime.end.p0(i64 8, ptr %9) #10
  %33 = load i32, ptr %10, align 4
  switch i32 %33, label %35 [
    i32 0, label %34
    i32 1, label %34
  ]

34:                                               ; preds = %32, %32
  ret void

35:                                               ; preds = %32
  unreachable
}

; Function Attrs: nounwind uwtable
define hidden ptr @SDL_hid_enumerate_REAL(i16 noundef zeroext %0, i16 noundef zeroext %1) #0 {
  %3 = alloca ptr, align 8
  %4 = alloca i16, align 2
  %5 = alloca i16, align 2
  %6 = alloca ptr, align 8
  %7 = alloca ptr, align 8
  %8 = alloca ptr, align 8
  %9 = alloca ptr, align 8
  %10 = alloca ptr, align 8
  %11 = alloca ptr, align 8
  %12 = alloca i32, align 4
  store i16 %0, ptr %4, align 2
  store i16 %1, ptr %5, align 2
  call void @llvm.lifetime.start.p0(i64 8, ptr %6) #10
  store ptr null, ptr %6, align 8
  call void @llvm.lifetime.start.p0(i64 8, ptr %7) #10
  store ptr null, ptr %7, align 8
  call void @llvm.lifetime.start.p0(i64 8, ptr %8) #10
  store ptr null, ptr %8, align 8
  call void @llvm.lifetime.start.p0(i64 8, ptr %9) #10
  call void @llvm.lifetime.start.p0(i64 8, ptr %10) #10
  store ptr null, ptr %10, align 8
  call void @llvm.lifetime.start.p0(i64 8, ptr %11) #10
  store ptr null, ptr %11, align 8
  %13 = load i32, ptr @SDL_hidapi_refcount, align 4
  %14 = icmp eq i32 %13, 0
  br i1 %14, label %15, label %19

15:                                               ; preds = %2
  %16 = call i32 @SDL_hid_init_REAL()
  %17 = icmp slt i32 %16, 0
  br i1 %17, label %18, label %19

18:                                               ; preds = %15
  store ptr null, ptr %3, align 8
  store i32 1, ptr %12, align 4
  br label %91

19:                                               ; preds = %15, %2
  %20 = load ptr, ptr @udev_ctx, align 8
  %21 = icmp ne ptr %20, null
  br i1 %21, label %22, label %26

22:                                               ; preds = %19
  %23 = load i16, ptr %4, align 2
  %24 = load i16, ptr %5, align 2
  %25 = call ptr @PLATFORM_hid_enumerate(i16 noundef zeroext %23, i16 noundef zeroext %24)
  store ptr %25, ptr %8, align 8
  br label %26

26:                                               ; preds = %22, %19
  %27 = load ptr, ptr %6, align 8
  store ptr %27, ptr %9, align 8
  br label %28

28:                                               ; preds = %34, %26
  %29 = load ptr, ptr %9, align 8
  %30 = icmp ne ptr %29, null
  br i1 %30, label %31, label %38

31:                                               ; preds = %28
  %32 = load ptr, ptr %9, align 8
  call void @AddDeviceToEnumeration(ptr noundef @.str.26, ptr noundef %32, ptr noundef %10, ptr noundef %11)
  %33 = load ptr, ptr %9, align 8
  call void @RemoveDeviceFromEnumeration(ptr noundef @.str.27, ptr noundef %33, ptr noundef %8, ptr noundef @PLATFORM_hid_free_enumeration)
  br label %34

34:                                               ; preds = %31
  %35 = load ptr, ptr %9, align 8
  %36 = getelementptr inbounds nuw %struct.hid_device_info, ptr %35, i32 0, i32 10
  %37 = load ptr, ptr %36, align 8
  store ptr %37, ptr %9, align 8
  br label %28, !llvm.loop !15

38:                                               ; preds = %28
  %39 = load i8, ptr @use_libusb_whitelist, align 1, !range !12, !noundef !13
  %40 = trunc i8 %39 to i1
  br i1 %40, label %41, label %65

41:                                               ; preds = %38
  %42 = load ptr, ptr %7, align 8
  store ptr %42, ptr %9, align 8
  br label %43

43:                                               ; preds = %49, %41
  %44 = load ptr, ptr %9, align 8
  %45 = icmp ne ptr %44, null
  br i1 %45, label %46, label %53

46:                                               ; preds = %43
  %47 = load ptr, ptr %9, align 8
  call void @AddDeviceToEnumeration(ptr noundef @.str.28, ptr noundef %47, ptr noundef %10, ptr noundef %11)
  %48 = load ptr, ptr %9, align 8
  call void @RemoveDeviceFromEnumeration(ptr noundef @.str.27, ptr noundef %48, ptr noundef %8, ptr noundef @PLATFORM_hid_free_enumeration)
  br label %49

49:                                               ; preds = %46
  %50 = load ptr, ptr %9, align 8
  %51 = getelementptr inbounds nuw %struct.hid_device_info, ptr %50, i32 0, i32 10
  %52 = load ptr, ptr %51, align 8
  store ptr %52, ptr %9, align 8
  br label %43, !llvm.loop !16

53:                                               ; preds = %43
  %54 = load ptr, ptr %8, align 8
  store ptr %54, ptr %9, align 8
  br label %55

55:                                               ; preds = %60, %53
  %56 = load ptr, ptr %9, align 8
  %57 = icmp ne ptr %56, null
  br i1 %57, label %58, label %64

58:                                               ; preds = %55
  %59 = load ptr, ptr %9, align 8
  call void @AddDeviceToEnumeration(ptr noundef @.str.29, ptr noundef %59, ptr noundef %10, ptr noundef %11)
  br label %60

60:                                               ; preds = %58
  %61 = load ptr, ptr %9, align 8
  %62 = getelementptr inbounds nuw %struct.hid_device_info, ptr %61, i32 0, i32 10
  %63 = load ptr, ptr %62, align 8
  store ptr %63, ptr %9, align 8
  br label %55, !llvm.loop !17

64:                                               ; preds = %55
  br label %88

65:                                               ; preds = %38
  %66 = load ptr, ptr %8, align 8
  store ptr %66, ptr %9, align 8
  br label %67

67:                                               ; preds = %72, %65
  %68 = load ptr, ptr %9, align 8
  %69 = icmp ne ptr %68, null
  br i1 %69, label %70, label %76

70:                                               ; preds = %67
  %71 = load ptr, ptr %9, align 8
  call void @AddDeviceToEnumeration(ptr noundef @.str.27, ptr noundef %71, ptr noundef %10, ptr noundef %11)
  br label %72

72:                                               ; preds = %70
  %73 = load ptr, ptr %9, align 8
  %74 = getelementptr inbounds nuw %struct.hid_device_info, ptr %73, i32 0, i32 10
  %75 = load ptr, ptr %74, align 8
  store ptr %75, ptr %9, align 8
  br label %67, !llvm.loop !18

76:                                               ; preds = %67
  %77 = load ptr, ptr %7, align 8
  store ptr %77, ptr %9, align 8
  br label %78

78:                                               ; preds = %83, %76
  %79 = load ptr, ptr %9, align 8
  %80 = icmp ne ptr %79, null
  br i1 %80, label %81, label %87

81:                                               ; preds = %78
  %82 = load ptr, ptr %9, align 8
  call void @AddDeviceToEnumeration(ptr noundef @.str.28, ptr noundef %82, ptr noundef %10, ptr noundef %11)
  br label %83

83:                                               ; preds = %81
  %84 = load ptr, ptr %9, align 8
  %85 = getelementptr inbounds nuw %struct.hid_device_info, ptr %84, i32 0, i32 10
  %86 = load ptr, ptr %85, align 8
  store ptr %86, ptr %9, align 8
  br label %78, !llvm.loop !19

87:                                               ; preds = %78
  br label %88

88:                                               ; preds = %87, %64
  %89 = load ptr, ptr %8, align 8
  call void @PLATFORM_hid_free_enumeration(ptr noundef %89)
  %90 = load ptr, ptr %10, align 8
  store ptr %90, ptr %3, align 8
  store i32 1, ptr %12, align 4
  br label %91

91:                                               ; preds = %88, %18
  call void @llvm.lifetime.end.p0(i64 8, ptr %11) #10
  call void @llvm.lifetime.end.p0(i64 8, ptr %10) #10
  call void @llvm.lifetime.end.p0(i64 8, ptr %9) #10
  call void @llvm.lifetime.end.p0(i64 8, ptr %8) #10
  call void @llvm.lifetime.end.p0(i64 8, ptr %7) #10
  call void @llvm.lifetime.end.p0(i64 8, ptr %6) #10
  %92 = load ptr, ptr %3, align 8
  ret ptr %92
}