; Function Attrs: nounwind uwtable
define hidden ptr @SDL_hid_enumerate_REAL(i16 noundef zeroext %0, i16 noundef zeroext %1) local_unnamed_addr #1 {
  %3 = load i32, ptr @SDL_hidapi_refcount, align 4
  %4 = icmp eq i32 %3, 0
  br i1 %4, label %5, label %9

5:                                                ; preds = %2
  %6 = tail call i32 @SDL_hid_init_REAL()
  %7 = icmp slt i32 %6, 0
  %8 = load ptr, ptr @udev_ctx, align 8
  %.not = icmp eq ptr %8, null
  %or.cond = select i1 %7, i1 true, i1 %.not
  br i1 %or.cond, label %PLATFORM_hid_free_enumeration.exit, label %10

9:                                                ; preds = %2
  %.old = load ptr, ptr @udev_ctx, align 8
  %.not.old = icmp eq ptr %.old, null
  br i1 %.not.old, label %PLATFORM_hid_free_enumeration.exit, label %10

10:                                               ; preds = %5, %9
  %11 = tail call ptr @PLATFORM_hid_enumerate(i16 noundef zeroext %0, i16 noundef zeroext %1)
  %12 = load i8, ptr @use_libusb_whitelist, align 1, !range !13, !noundef !14
  %13 = trunc nuw i8 %12 to i1
  %.not2443 = icmp eq ptr %11, null
  br i1 %13, label %.preheader, label %.preheader37

.preheader37:                                     ; preds = %10
  br i1 %.not2443, label %PLATFORM_hid_free_enumeration.exit, label %.lr.ph

.preheader:                                       ; preds = %10
  br i1 %.not2443, label %PLATFORM_hid_free_enumeration.exit, label %.lr.ph47

.lr.ph47:                                         ; preds = %.preheader, %AddDeviceToEnumeration.exit
  %.246 = phi ptr [ %20, %AddDeviceToEnumeration.exit ], [ %11, %.preheader ]
  %.03045 = phi ptr [ %.231, %AddDeviceToEnumeration.exit ], [ null, %.preheader ]
  %.03344 = phi ptr [ %.4, %AddDeviceToEnumeration.exit ], [ null, %.preheader ]
  %14 = tail call noalias ptr @SDL_malloc_REAL(i64 noundef 80) #22
  %15 = icmp eq ptr %14, null
  br i1 %15, label %AddDeviceToEnumeration.exit, label %16

16:                                               ; preds = %.lr.ph47
  tail call fastcc void @CopyHIDDeviceInfo(ptr noundef nonnull readonly %.246, ptr noundef nonnull %14)
  %.not.i = icmp eq ptr %.03045, null
  br i1 %.not.i, label %AddDeviceToEnumeration.exit, label %17

17:                                               ; preds = %16
  %18 = getelementptr inbounds nuw i8, ptr %.03045, i64 72
  store ptr %14, ptr %18, align 8
  br label %AddDeviceToEnumeration.exit

AddDeviceToEnumeration.exit:                      ; preds = %17, %16, %.lr.ph47
  %.4 = phi ptr [ %.03344, %.lr.ph47 ], [ %.03344, %17 ], [ %14, %16 ]
  %.231 = phi ptr [ %.03045, %.lr.ph47 ], [ %14, %17 ], [ %14, %16 ]
  %19 = getelementptr inbounds nuw i8, ptr %.246, i64 56
  %20 = load ptr, ptr %19, align 8
  %.not24 = icmp eq ptr %20, null
  br i1 %.not24, label %.loopexit, label %.lr.ph47, !llvm.loop !16

.lr.ph:                                           ; preds = %.preheader37, %AddDeviceToEnumeration.exit26
  %.342 = phi ptr [ %27, %AddDeviceToEnumeration.exit26 ], [ %11, %.preheader37 ]
  %.141 = phi ptr [ %.332, %AddDeviceToEnumeration.exit26 ], [ null, %.preheader37 ]
  %.23540 = phi ptr [ %.6, %AddDeviceToEnumeration.exit26 ], [ null, %.preheader37 ]
  %21 = tail call noalias ptr @SDL_malloc_REAL(i64 noundef 80) #22
  %22 = icmp eq ptr %21, null
  br i1 %22, label %AddDeviceToEnumeration.exit26, label %23

23:                                               ; preds = %.lr.ph
  tail call fastcc void @CopyHIDDeviceInfo(ptr noundef nonnull readonly %.342, ptr noundef nonnull %21)
  %.not.i25 = icmp eq ptr %.141, null
  br i1 %.not.i25, label %AddDeviceToEnumeration.exit26, label %24

24:                                               ; preds = %23
  %25 = getelementptr inbounds nuw i8, ptr %.141, i64 72
  store ptr %21, ptr %25, align 8
  br label %AddDeviceToEnumeration.exit26

AddDeviceToEnumeration.exit26:                    ; preds = %24, %23, %.lr.ph
  %.6 = phi ptr [ %.23540, %.lr.ph ], [ %.23540, %24 ], [ %21, %23 ]
  %.332 = phi ptr [ %.141, %.lr.ph ], [ %21, %24 ], [ %21, %23 ]
  %26 = getelementptr inbounds nuw i8, ptr %.342, i64 56
  %27 = load ptr, ptr %26, align 8
  %.not23 = icmp eq ptr %27, null
  br i1 %.not23, label %.loopexit, label %.lr.ph, !llvm.loop !17

.loopexit:                                        ; preds = %AddDeviceToEnumeration.exit26, %AddDeviceToEnumeration.exit
  %.134 = phi ptr [ %.4, %AddDeviceToEnumeration.exit ], [ %.6, %AddDeviceToEnumeration.exit26 ]
  %.not9.i = icmp eq ptr %11, null
  br i1 %.not9.i, label %PLATFORM_hid_free_enumeration.exit, label %.lr.ph.i

.lr.ph.i:                                         ; preds = %.loopexit, %.lr.ph.i
  %.010.i = phi ptr [ %29, %.lr.ph.i ], [ %11, %.loopexit ]
  %28 = getelementptr inbounds nuw i8, ptr %.010.i, i64 56
  %29 = load ptr, ptr %28, align 8
  %30 = load ptr, ptr %.010.i, align 8
  tail call void @free(ptr noundef %30) #22
  %31 = getelementptr inbounds nuw i8, ptr %.010.i, i64 16
  %32 = load ptr, ptr %31, align 8
  tail call void @free(ptr noundef %32) #22
  %33 = getelementptr inbounds nuw i8, ptr %.010.i, i64 32
  %34 = load ptr, ptr %33, align 8
  tail call void @free(ptr noundef %34) #22
  %35 = getelementptr inbounds nuw i8, ptr %.010.i, i64 40
  %36 = load ptr, ptr %35, align 8
  tail call void @free(ptr noundef %36) #22
  tail call void @free(ptr noundef nonnull %.010.i) #22
  %.not.i27 = icmp eq ptr %29, null
  br i1 %.not.i27, label %PLATFORM_hid_free_enumeration.exit, label %.lr.ph.i, !llvm.loop !8

PLATFORM_hid_free_enumeration.exit:               ; preds = %.lr.ph.i, %9, %.preheader37, %.preheader, %.loopexit, %5
  %.022 = phi ptr [ null, %5 ], [ %.134, %.loopexit ], [ null, %.preheader ], [ null, %.preheader37 ], [ null, %9 ], [ %.134, %.lr.ph.i ]
  ret ptr %.022
}